; Function Attrs: mustprogress uwtable
define hidden void @_ZNK2cv3mcc10CChartDraw10drawCenterENS_7Scalar_IdEE(ptr noundef nonnull align 8 dereferenceable(104) %0, ptr noundef nonnull %1) local_unnamed_addr #5 align 2 personality ptr @__gxx_personality_v0 {
  %3 = alloca %"class.cv::_InputOutputArray", align 8
  call void @llvm.lifetime.start.p0(i64 24, ptr nonnull %3) #18
  %4 = getelementptr inbounds nuw i8, ptr %0, i64 8
  %5 = getelementptr inbounds nuw i8, ptr %3, i64 8
  %6 = getelementptr inbounds nuw i8, ptr %3, i64 16
  store i64 0, ptr %6, align 8
  store i32 -1023344640, ptr %3, align 8, !tbaa !14
  store ptr %4, ptr %5, align 8, !tbaa !16
  %7 = load ptr, ptr %0, align 8, !tbaa !39
  %8 = getelementptr inbounds nuw i8, ptr %7, i64 24
  %9 = load float, ptr %8, align 4, !tbaa !26
  %10 = insertelement <4 x float> poison, float %9, i64 0
  %11 = tail call noundef i32 @llvm.x86.sse.cvtss2si(<4 x float> %10)
  %12 = getelementptr inbounds nuw i8, ptr %7, i64 28
  %13 = load float, ptr %12, align 4, !tbaa !27
  %14 = insertelement <4 x float> poison, float %13, i64 0
  %15 = tail call noundef i32 @llvm.x86.sse.cvtss2si(<4 x float> %14)
  %.sroa.2.0.insert.ext.i = zext i32 %15 to i64
  %.sroa.2.0.insert.shift.i = shl nuw i64 %.sroa.2.0.insert.ext.i, 32
  %.sroa.0.0.insert.ext.i = zext i32 %11 to i64
  %.sroa.0.0.insert.insert.i = or disjoint i64 %.sroa.2.0.insert.shift.i, %.sroa.0.0.insert.ext.i
  call void @_ZN2cv6circleERKNS_17_InputOutputArrayENS_6Point_IiEEiRKNS_7Scalar_IdEEiii(ptr noundef nonnull align 8 dereferenceable(24) %3, i64 %.sroa.0.0.insert.insert.i, i32 noundef 3, ptr noundef nonnull align 8 dereferenceable(32) %1, i32 noundef 2, i32 noundef 8, i32 noundef 0)
  call void @llvm.lifetime.end.p0(i64 24, ptr nonnull %3) #18
  ret void
}